target datalayout = "e-m:e-p270:32:32-p271:32:32-p272:64:64-i64:64-i128:128-f80:128-n8:16:32:64-S128"
target triple = "x86_64-pc-linux-gnu"

%struct.H5B2_t = type { ptr, ptr }
%struct.H5B2_hdr_t = type { %struct.H5C_cache_entry_t, %struct.H5B2_node_ptr_t, i8, i8, i32, i32, i16, i8, ptr, i64, i64, i64, i64, i8, i8, i8, ptr, ptr, ptr, ptr, ptr, ptr, ptr, i8, ptr, ptr, i64, ptr, ptr }
%struct.H5C_cache_entry_t = type { ptr, i64, i64, ptr, i8, ptr, i8, i8, i8, i8, i32, i8, i8, i8, i8, i8, i32, ptr, i32, i32, i32, i32, i32, i8, i8, ptr, ptr, ptr, ptr, ptr, ptr, i8, i32, i8, i64, ptr, i64, i64, i32, i8, i32, i32, i8, ptr, ptr, ptr }
%struct.H5B2_node_ptr_t = type { i64, i16, i64 }

@H5B2_init_g = global i8 0, align 1
@H5_libterm_g = external global i8, align 1
@.str = private unnamed_addr constant [98 x i8] c"generated/home/dtcxzyw/WorkSpace/Projects/compilers/llvm-opt-benchmark/bench/hdf5/hdf5/src/H5B2.c\00", align 1
@H5E_BTREE_g = external global i64, align 8
@H5E_NOTFOUND_g = external global i64, align 8
@.str.23 = private unnamed_addr constant [22 x i8] c"B-tree has no records\00", align 1
@__func__.H5B2_neighbor = private unnamed_addr constant [14 x i8] c"H5B2_neighbor\00", align 1
@.str.30 = private unnamed_addr constant [55 x i8] c"unable to find neighbor record in B-tree internal node\00", align 1
@.str.31 = private unnamed_addr constant [51 x i8] c"unable to find neighbor record in B-tree leaf node\00", align 1

; Function Attrs: nounwind uwtable
define i32 @H5B2_neighbor(ptr noundef %0, i32 noundef %1, ptr noundef %2, ptr noundef %3, ptr noundef %4) #0 {
  %6 = alloca ptr, align 8
  %7 = alloca i32, align 4
  %8 = alloca ptr, align 8
  %9 = alloca ptr, align 8
  %10 = alloca ptr, align 8
  %11 = alloca ptr, align 8
  %12 = alloca i32, align 4
  %13 = alloca i8, align 1
  store ptr %0, ptr %6, align 8, !tbaa !11
  store i32 %1, ptr %7, align 4, !tbaa !24
  store ptr %2, ptr %8, align 8, !tbaa !10
  store ptr %3, ptr %9, align 8, !tbaa !10
  store ptr %4, ptr %10, align 8, !tbaa !10
  call void @llvm.lifetime.start.p0(i64 8, ptr %11) #6
  call void @llvm.lifetime.start.p0(i64 4, ptr %12) #6
  store i32 0, ptr %12, align 4, !tbaa !24
  call void @llvm.lifetime.start.p0(i64 1, ptr %13) #6
  store i8 0, ptr %13, align 1, !tbaa !15
  %14 = load i8, ptr @H5B2_init_g, align 1, !tbaa !15, !range !17, !noundef !18
  %15 = trunc i8 %14 to i1
  br i1 %15, label %20, label %16

16:                                               ; preds = %5
  %17 = load i8, ptr @H5_libterm_g, align 1, !tbaa !15, !range !17, !noundef !18
  %18 = trunc i8 %17 to i1
  %19 = xor i1 %18, true
  br label %20

20:                                               ; preds = %16, %5
  %21 = phi i1 [ false, %5 ], [ %19, %16 ]
  %22 = xor i1 %21, true
  %23 = xor i1 %22, true
  %24 = zext i1 %23 to i32
  %25 = sext i32 %24 to i64
  %26 = call i64 @llvm.expect.i64(i64 %25, i64 0)
  %27 = icmp ne i64 %26, 0
  br i1 %27, label %28, label %29

28:                                               ; preds = %20
  store i8 1, ptr @H5B2_init_g, align 1, !tbaa !15
  br label %29

29:                                               ; preds = %28, %20
  %30 = load i8, ptr @H5B2_init_g, align 1, !tbaa !15, !range !17, !noundef !18
  %31 = trunc i8 %30 to i1
  br i1 %31, label %36, label %32

32:                                               ; preds = %29
  %33 = load i8, ptr @H5_libterm_g, align 1, !tbaa !15, !range !17, !noundef !18
  %34 = trunc i8 %33 to i1
  %35 = xor i1 %34, true
  br label %36

36:                                               ; preds = %32, %29
  %37 = phi i1 [ true, %29 ], [ %35, %32 ]
  %38 = xor i1 %37, true
  %39 = xor i1 %38, true
  %40 = zext i1 %39 to i32
  %41 = sext i32 %40 to i64
  %42 = call i64 @llvm.expect.i64(i64 %41, i64 1)
  %43 = icmp ne i64 %42, 0
  br i1 %43, label %44, label %152

44:                                               ; preds = %36
  %45 = load ptr, ptr %6, align 8, !tbaa !11
  %46 = getelementptr inbounds nuw %struct.H5B2_t, ptr %45, i32 0, i32 1
  %47 = load ptr, ptr %46, align 8, !tbaa !23
  %48 = load ptr, ptr %6, align 8, !tbaa !11
  %49 = getelementptr inbounds nuw %struct.H5B2_t, ptr %48, i32 0, i32 0
  %50 = load ptr, ptr %49, align 8, !tbaa !21
  %51 = getelementptr inbounds nuw %struct.H5B2_hdr_t, ptr %50, i32 0, i32 8
  store ptr %47, ptr %51, align 8, !tbaa !26
  %52 = load ptr, ptr %6, align 8, !tbaa !11
  %53 = getelementptr inbounds nuw %struct.H5B2_t, ptr %52, i32 0, i32 0
  %54 = load ptr, ptr %53, align 8, !tbaa !21
  store ptr %54, ptr %11, align 8, !tbaa !13
  %55 = load ptr, ptr %11, align 8, !tbaa !13
  %56 = getelementptr inbounds nuw %struct.H5B2_hdr_t, ptr %55, i32 0, i32 1
  %57 = getelementptr inbounds nuw %struct.H5B2_node_ptr_t, ptr %56, i32 0, i32 0
  %58 = load i64, ptr %57, align 8, !tbaa !42
  %59 = icmp ne i64 %58, -1
  br i1 %59, label %79, label %60

60:                                               ; preds = %44
  br label %61

61:                                               ; preds = %60
  br label %62

62:                                               ; preds = %61
  br label %63

63:                                               ; preds = %62
  %64 = load i64, ptr @H5E_BTREE_g, align 8, !tbaa !19
  %65 = load i64, ptr @H5E_NOTFOUND_g, align 8, !tbaa !19
  %66 = call i32 (ptr, ptr, i32, i64, i64, ptr, ...) @H5E_printf_stack(ptr noundef @.str, ptr noundef @__func__.H5B2_neighbor, i32 noundef 1087, i64 noundef %64, i64 noundef %65, ptr noundef @.str.23)
  br label %67

67:                                               ; preds = %63
  br label %68

68:                                               ; preds = %67
  store i8 1, ptr %13, align 1, !tbaa !15
  %69 = load i8, ptr %13, align 1, !tbaa !15, !range !17, !noundef !18
  %70 = trunc i8 %69 to i1
  %71 = zext i1 %70 to i8
  store i8 %71, ptr %13, align 1, !tbaa !15
  br label %72

72:                                               ; preds = %68
  br label %73

73:                                               ; preds = %72
  br label %74

74:                                               ; preds = %73
  store i32 -1, ptr %12, align 4, !tbaa !24
  br label %151

75:                                               ; No predecessors!
  br label %76

76:                                               ; preds = %75
  br label %77

77:                                               ; preds = %76
  br label %78

78:                                               ; preds = %77
  br label %79

79:                                               ; preds = %78, %44
  %80 = load ptr, ptr %11, align 8, !tbaa !13
  %81 = getelementptr inbounds nuw %struct.H5B2_hdr_t, ptr %80, i32 0, i32 6
  %82 = load i16, ptr %81, align 4, !tbaa !43
  %83 = zext i16 %82 to i32
  %84 = icmp sgt i32 %83, 0
  br i1 %84, label %85, label %119

85:                                               ; preds = %79
  %86 = load ptr, ptr %11, align 8, !tbaa !13
  %87 = load ptr, ptr %11, align 8, !tbaa !13
  %88 = getelementptr inbounds nuw %struct.H5B2_hdr_t, ptr %87, i32 0, i32 6
  %89 = load i16, ptr %88, align 4, !tbaa !43
  %90 = load ptr, ptr %11, align 8, !tbaa !13
  %91 = getelementptr inbounds nuw %struct.H5B2_hdr_t, ptr %90, i32 0, i32 1
  %92 = load i32, ptr %7, align 4, !tbaa !24
  %93 = load ptr, ptr %11, align 8, !tbaa !13
  %94 = load ptr, ptr %8, align 8, !tbaa !10
  %95 = load ptr, ptr %9, align 8, !tbaa !10
  %96 = load ptr, ptr %10, align 8, !tbaa !10
  %97 = call i32 @H5B2__neighbor_internal(ptr noundef %86, i16 noundef zeroext %89, ptr noundef %91, ptr noundef null, i32 noundef %92, ptr noundef %93, ptr noundef %94, ptr noundef %95, ptr noundef %96)
  %98 = icmp slt i32 %97, 0
  br i1 %98, label %99, label %118

99:                                               ; preds = %85
  br label %100

100:                                              ; preds = %99
  br label %101

101:                                              ; preds = %100
  br label %102

102:                                              ; preds = %101
  %103 = load i64, ptr @H5E_BTREE_g, align 8, !tbaa !19
  %104 = load i64, ptr @H5E_NOTFOUND_g, align 8, !tbaa !19
  %105 = call i32 (ptr, ptr, i32, i64, i64, ptr, ...) @H5E_printf_stack(ptr noundef @.str, ptr noundef @__func__.H5B2_neighbor, i32 noundef 1093, i64 noundef %103, i64 noundef %104, ptr noundef @.str.30)
  br label %106

106:                                              ; preds = %102
  br label %107

107:                                              ; preds = %106
  store i8 1, ptr %13, align 1, !tbaa !15
  %108 = load i8, ptr %13, align 1, !tbaa !15, !range !17, !noundef !18
  %109 = trunc i8 %108 to i1
  %110 = zext i1 %109 to i8
  store i8 %110, ptr %13, align 1, !tbaa !15
  br label %111

111:                                              ; preds = %107
  br label %112

112:                                              ; preds = %111
  br label %113

113:                                              ; preds = %112
  store i32 -1, ptr %12, align 4, !tbaa !24
  br label %151

114:                                              ; No predecessors!
  br label %115

115:                                              ; preds = %114
  br label %116

116:                                              ; preds = %115
  br label %117

117:                                              ; preds = %116
  br label %118

118:                                              ; preds = %117, %85
  br label %150

119:                                              ; preds = %79
  %120 = load ptr, ptr %11, align 8, !tbaa !13
  %121 = load ptr, ptr %11, align 8, !tbaa !13
  %122 = getelementptr inbounds nuw %struct.H5B2_hdr_t, ptr %121, i32 0, i32 1
  %123 = load i32, ptr %7, align 4, !tbaa !24
  %124 = load ptr, ptr %11, align 8, !tbaa !13
  %125 = load ptr, ptr %8, align 8, !tbaa !10
  %126 = load ptr, ptr %9, align 8, !tbaa !10
  %127 = load ptr, ptr %10, align 8, !tbaa !10
  %128 = call i32 @H5B2__neighbor_leaf(ptr noundef %120, ptr noundef %122, ptr noundef null, i32 noundef %123, ptr noundef %124, ptr noundef %125, ptr noundef %126, ptr noundef %127)
  %129 = icmp slt i32 %128, 0
  br i1 %129, label %130, label %149

130:                                              ; preds = %119
  br label %131

131:                                              ; preds = %130
  br label %132

132:                                              ; preds = %131
  br label %133

133:                                              ; preds = %132
  %134 = load i64, ptr @H5E_BTREE_g, align 8, !tbaa !19
  %135 = load i64, ptr @H5E_NOTFOUND_g, align 8, !tbaa !19
  %136 = call i32 (ptr, ptr, i32, i64, i64, ptr, ...) @H5E_printf_stack(ptr noundef @.str, ptr noundef @__func__.H5B2_neighbor, i32 noundef 1097, i64 noundef %134, i64 noundef %135, ptr noundef @.str.31)
  br label %137

137:                                              ; preds = %133
  br label %138

138:                                              ; preds = %137
  store i8 1, ptr %13, align 1, !tbaa !15
  %139 = load i8, ptr %13, align 1, !tbaa !15, !range !17, !noundef !18
  %140 = trunc i8 %139 to i1
  %141 = zext i1 %140 to i8
  store i8 %141, ptr %13, align 1, !tbaa !15
  br label %142

142:                                              ; preds = %138
  br label %143

143:                                              ; preds = %142
  br label %144

144:                                              ; preds = %143
  store i32 -1, ptr %12, align 4, !tbaa !24
  br label %151

145:                                              ; No predecessors!
  br label %146

146:                                              ; preds = %145
  br label %147

147:                                              ; preds = %146
  br label %148

148:                                              ; preds = %147
  br label %149

149:                                              ; preds = %148, %119
  br label %150

150:                                              ; preds = %149, %118
  br label %151

151:                                              ; preds = %150, %144, %113, %74
  br label %152

152:                                              ; preds = %151, %36
  %153 = load i32, ptr %12, align 4, !tbaa !24
  call void @llvm.lifetime.end.p0(i64 1, ptr %13) #6
  call void @llvm.lifetime.end.p0(i64 4, ptr %12) #6
  call void @llvm.lifetime.end.p0(i64 8, ptr %11) #6
  ret i32 %153
}