; Function Attrs: nounwind uwtable
define range(i32 -1, 1) i32 @H5B2_neighbor(ptr noundef readonly captures(none) %0, i32 noundef %1, ptr noundef %2, ptr noundef %3, ptr noundef %4) local_unnamed_addr #0 {
  %6 = load i8, ptr @H5B2_init_g, align 1, !tbaa !3, !range !7, !noundef !8
  %7 = trunc nuw i8 %6 to i1
  %8 = load i8, ptr @H5_libterm_g, align 1, !range !7
  %9 = trunc nuw i8 %8 to i1
  %10 = select i1 %7, i1 true, i1 %9
  br i1 %10, label %11, label %.thread, !prof !9

.thread:                                          ; preds = %5
  store i8 1, ptr @H5B2_init_g, align 1, !tbaa !3
  br label %14

11:                                               ; preds = %5
  %12 = xor i1 %9, true
  %13 = select i1 %7, i1 true, i1 %12
  br i1 %13, label %14, label %42, !prof !10

14:                                               ; preds = %.thread, %11
  %15 = getelementptr inbounds nuw i8, ptr %0, i64 8
  %16 = load ptr, ptr %15, align 8, !tbaa !18
  %17 = load ptr, ptr %0, align 8, !tbaa !13
  %18 = getelementptr inbounds nuw i8, ptr %17, i64 288
  store ptr %16, ptr %18, align 8, !tbaa !19
  %19 = getelementptr inbounds nuw i8, ptr %17, i64 248
  %20 = load i64, ptr %19, align 8, !tbaa !37
  %.not = icmp eq i64 %20, -1
  br i1 %.not, label %21, label %25

21:                                               ; preds = %14
  %22 = load i64, ptr @H5E_BTREE_g, align 8, !tbaa !11
  %23 = load i64, ptr @H5E_NOTFOUND_g, align 8, !tbaa !11
  %24 = tail call i32 (ptr, ptr, i32, i64, i64, ptr, ...) @H5E_printf_stack(ptr noundef nonnull @.str, ptr noundef nonnull @__func__.H5B2_neighbor, i32 noundef 1087, i64 noundef %22, i64 noundef %23, ptr noundef nonnull @.str.23) #7
  br label %42

25:                                               ; preds = %14
  %26 = getelementptr inbounds nuw i8, ptr %17, i64 284
  %27 = load i16, ptr %26, align 4, !tbaa !38
  %.not23 = icmp eq i16 %27, 0
  br i1 %.not23, label %35, label %28

28:                                               ; preds = %25
  %29 = tail call i32 @H5B2__neighbor_internal(ptr noundef nonnull %17, i16 noundef zeroext %27, ptr noundef nonnull %19, ptr noundef null, i32 noundef %1, ptr noundef nonnull %17, ptr noundef %2, ptr noundef %3, ptr noundef %4) #7
  %30 = icmp slt i32 %29, 0
  br i1 %30, label %31, label %42

31:                                               ; preds = %28
  %32 = load i64, ptr @H5E_BTREE_g, align 8, !tbaa !11
  %33 = load i64, ptr @H5E_NOTFOUND_g, align 8, !tbaa !11
  %34 = tail call i32 (ptr, ptr, i32, i64, i64, ptr, ...) @H5E_printf_stack(ptr noundef nonnull @.str, ptr noundef nonnull @__func__.H5B2_neighbor, i32 noundef 1093, i64 noundef %32, i64 noundef %33, ptr noundef nonnull @.str.30) #7
  br label %42

35:                                               ; preds = %25
  %36 = tail call i32 @H5B2__neighbor_leaf(ptr noundef nonnull %17, ptr noundef nonnull %19, ptr noundef null, i32 noundef %1, ptr noundef nonnull %17, ptr noundef %2, ptr noundef %3, ptr noundef %4) #7
  %37 = icmp slt i32 %36, 0
  br i1 %37, label %38, label %42

38:                                               ; preds = %35
  %39 = load i64, ptr @H5E_BTREE_g, align 8, !tbaa !11
  %40 = load i64, ptr @H5E_NOTFOUND_g, align 8, !tbaa !11
  %41 = tail call i32 (ptr, ptr, i32, i64, i64, ptr, ...) @H5E_printf_stack(ptr noundef nonnull @.str, ptr noundef nonnull @__func__.H5B2_neighbor, i32 noundef 1097, i64 noundef %39, i64 noundef %40, ptr noundef nonnull @.str.31) #7
  br label %42

42:                                               ; preds = %21, %31, %38, %35, %28, %11
  %.0 = phi i32 [ -1, %31 ], [ 0, %28 ], [ -1, %38 ], [ 0, %35 ], [ -1, %21 ], [ 0, %11 ]
  ret i32 %.0
}